; Function Attrs: mustprogress nounwind uwtable
define dso_local void @_ZN5clang4ento15CheckerRegistry10addPackageEN4llvm9StringRefE(ptr nocapture noundef nonnull readonly align 8 dereferenceable(24) %0, ptr %1, i64 %2) local_unnamed_addr #0 align 2 {
  %4 = alloca %"struct.clang::ento::PackageInfo", align 8
  %5 = load ptr, ptr %0, align 8
  %6 = getelementptr inbounds nuw i8, ptr %5, i64 64
  store ptr %1, ptr %4, align 8
  %.sroa.2.0..sroa_idx.i = getelementptr inbounds i8, ptr %4, i64 8
  store i64 %2, ptr %.sroa.2.0..sroa_idx.i, align 8
  %7 = getelementptr inbounds nuw i8, ptr %4, i64 16
  %8 = getelementptr inbounds i8, ptr %4, i64 32
  call void @_ZN4llvm15SmallVectorBaseIjEC2EPvm(ptr noundef nonnull align 8 dereferenceable(16) %7, ptr noundef nonnull %8, i64 noundef 0) #16
  %9 = call noundef nonnull align 8 dereferenceable(32) ptr @_ZN4llvm15SmallVectorImplIN5clang4ento11PackageInfoEE12emplace_backIJS3_EEERS3_DpOT_(ptr noundef nonnull align 8 dereferenceable(16) %6, ptr noundef nonnull align 8 dereferenceable(32) %4)
  %10 = call noundef i64 @_ZNK4llvm15SmallVectorBaseIjE4sizeEv(ptr noundef nonnull align 8 dereferenceable(16) %7) #16
  %11 = load ptr, ptr %7, align 8
  %12 = icmp eq ptr %11, %8
  br i1 %12, label %_ZN5clang4ento11PackageInfoD2Ev.exit, label %13

13:                                               ; preds = %3
  call void @free(ptr noundef %11) #16
  br label %_ZN5clang4ento11PackageInfoD2Ev.exit

_ZN5clang4ento11PackageInfoD2Ev.exit:             ; preds = %3, %13
  ret void
}